target datalayout = "e-m:e-p270:32:32-p271:32:32-p272:64:64-i64:64-i128:128-f80:128-n8:16:32:64-S128"
target triple = "x86_64-pc-linux-gnu"

%struct.bio_st = type { ptr, ptr, ptr, i32, i32, i32, i32, i32, i32, ptr, ptr, i64, i64 }

@.str.1 = private unnamed_addr constant [2 x i8] c" \00", align 1

; Function Attrs: nounwind uwtable
define hidden i32 @BIO_write(ptr noundef %0, ptr noundef %1, i32 noundef %2) #0 {
  %4 = alloca ptr, align 8
  %5 = alloca ptr, align 8
  %6 = alloca i32, align 4
  store ptr %0, ptr %4, align 8, !tbaa !11
  store ptr %1, ptr %5, align 8, !tbaa !28
  store i32 %2, ptr %6, align 4, !tbaa !23
  %7 = load ptr, ptr %4, align 8, !tbaa !11
  %8 = load ptr, ptr %5, align 8, !tbaa !28
  %9 = load i32, ptr %6, align 4, !tbaa !23
  %10 = load ptr, ptr %4, align 8, !tbaa !11
  %11 = getelementptr inbounds nuw %struct.bio_st, ptr %10, i32 0, i32 12
  %12 = call i32 @bio_io(ptr noundef %7, ptr noundef %8, i32 noundef %9, i64 noundef 16, i32 noundef 3, ptr noundef %11)
  ret i32 %12
}

; Function Attrs: nounwind uwtable
define hidden i32 @BIO_puts(ptr noundef %0, ptr noundef %1) #0 {
  %3 = alloca ptr, align 8
  %4 = alloca ptr, align 8
  store ptr %0, ptr %3, align 8, !tbaa !11
  store ptr %1, ptr %4, align 8, !tbaa !33
  %5 = load ptr, ptr %3, align 8, !tbaa !11
  %6 = load ptr, ptr %4, align 8, !tbaa !33
  %7 = load ptr, ptr %4, align 8, !tbaa !33
  %8 = call i64 @strlen(ptr noundef %7) #11
  %9 = trunc i64 %8 to i32
  %10 = call i32 @BIO_write(ptr noundef %5, ptr noundef %6, i32 noundef %9)
  ret i32 %10
}

; Function Attrs: nounwind uwtable
define hidden i32 @BIO_indent(ptr noundef %0, i32 noundef %1, i32 noundef %2) #0 {
  %4 = alloca i32, align 4
  %5 = alloca ptr, align 8
  %6 = alloca i32, align 4
  %7 = alloca i32, align 4
  store ptr %0, ptr %5, align 8, !tbaa !11
  store i32 %1, ptr %6, align 4, !tbaa !23
  store i32 %2, ptr %7, align 4, !tbaa !23
  %8 = load i32, ptr %6, align 4, !tbaa !23
  %9 = load i32, ptr %7, align 4, !tbaa !23
  %10 = icmp ugt i32 %8, %9
  br i1 %10, label %11, label %13

11:                                               ; preds = %3
  %12 = load i32, ptr %7, align 4, !tbaa !23
  store i32 %12, ptr %6, align 4, !tbaa !23
  br label %13

13:                                               ; preds = %11, %3
  br label %14

14:                                               ; preds = %23, %13
  %15 = load i32, ptr %6, align 4, !tbaa !23
  %16 = add i32 %15, -1
  store i32 %16, ptr %6, align 4, !tbaa !23
  %17 = icmp ne i32 %15, 0
  br i1 %17, label %18, label %24

18:                                               ; preds = %14
  %19 = load ptr, ptr %5, align 8, !tbaa !11
  %20 = call i32 @BIO_puts(ptr noundef %19, ptr noundef @.str.1)
  %21 = icmp ne i32 %20, 1
  br i1 %21, label %22, label %23

22:                                               ; preds = %18
  store i32 0, ptr %4, align 4
  br label %25

23:                                               ; preds = %18
  br label %14, !llvm.loop !44

24:                                               ; preds = %14
  store i32 1, ptr %4, align 4
  br label %25

25:                                               ; preds = %24, %22
  %26 = load i32, ptr %4, align 4
  ret i32 %26
}