; Function Attrs: nounwind uwtable
define hidden range(i32 0, 2) i32 @BIO_indent(ptr noundef %0, i32 noundef %1, i32 noundef %2) local_unnamed_addr #0 {
  %spec.select = tail call i32 @llvm.umin.i32(i32 %1, i32 %2)
  %4 = getelementptr inbounds nuw i8, ptr %0, i64 72
  br label %5

5:                                                ; preds = %6, %3
  %.1 = phi i32 [ %spec.select, %3 ], [ %7, %6 ]
  %.not = icmp eq i32 %.1, 0
  br i1 %.not, label %9, label %6

6:                                                ; preds = %5
  %7 = add i32 %.1, -1
  %8 = tail call fastcc i32 @bio_io(ptr noundef %0, ptr noundef nonnull @.str.1, i32 noundef 1, i64 noundef 16, i32 noundef 3, ptr noundef nonnull %4)
  %.not8 = icmp eq i32 %8, 1
  br i1 %.not8, label %5, label %9, !llvm.loop !40

9:                                                ; preds = %5, %6
  %.0 = phi i32 [ 0, %6 ], [ 1, %5 ]
  ret i32 %.0
}